ARM GAS  /tmp/ccCEKDCd.s 			page 1


   1              		.cpu cortex-m4
   2              		.eabi_attribute 27, 1
   3              		.eabi_attribute 28, 1
   4              		.eabi_attribute 20, 1
   5              		.eabi_attribute 21, 1
   6              		.eabi_attribute 23, 3
   7              		.eabi_attribute 24, 1
   8              		.eabi_attribute 25, 1
   9              		.eabi_attribute 26, 1
  10              		.eabi_attribute 30, 1
  11              		.eabi_attribute 34, 1
  12              		.eabi_attribute 18, 4
  13              		.file	"tmc5160.c"
  14              		.text
  15              	.Ltext0:
  16              		.cfi_sections	.debug_frame
  17              		.section	.text.tmc5160_xfer,"ax",%progbits
  18              		.align	1
  19              		.arch armv7e-m
  20              		.syntax unified
  21              		.thumb
  22              		.thumb_func
  23              		.fpu fpv4-sp-d16
  25              	tmc5160_xfer:
  26              	.LVL0:
  27              	.LFB132:
  28              		.file 1 "Core/Src/tmc5160.c"
   1:Core/Src/tmc5160.c **** /**
   2:Core/Src/tmc5160.c ****   ******************************************************************************
   3:Core/Src/tmc5160.c ****   * @file    tmc5160.c
   4:Core/Src/tmc5160.c ****   * @brief   Minimal TMC5160 SPI driver.
   5:Core/Src/tmc5160.c ****   *
   6:Core/Src/tmc5160.c ****   * The TMC5160 uses 40-bit SPI datagrams (SPI mode 3, MSB first):
   7:Core/Src/tmc5160.c ****   *   byte 0      : register address (bit 7 set = write)
   8:Core/Src/tmc5160.c ****   *   bytes 1..4  : 32-bit data, MSB first
   9:Core/Src/tmc5160.c ****   * Every transfer also returns 40 bits: an 8-bit SPI status followed by the
  10:Core/Src/tmc5160.c ****   * 32-bit data requested by the *previous* datagram, so a register read takes
  11:Core/Src/tmc5160.c ****   * two transfers.
  12:Core/Src/tmc5160.c ****   ******************************************************************************
  13:Core/Src/tmc5160.c ****   */
  14:Core/Src/tmc5160.c **** 
  15:Core/Src/tmc5160.c **** #include "tmc5160.h"
  16:Core/Src/tmc5160.c **** #include "main.h"
  17:Core/Src/tmc5160.c **** 
  18:Core/Src/tmc5160.c **** extern SPI_HandleTypeDef hspi1;
  19:Core/Src/tmc5160.c **** 
  20:Core/Src/tmc5160.c **** static uint8_t tmc5160_xfer(uint8_t reg, uint32_t data, uint32_t *reply)
  21:Core/Src/tmc5160.c **** {
  29              		.loc 1 21 1 view -0
  30              		.cfi_startproc
  31              		@ args = 0, pretend = 0, frame = 16
  32              		@ frame_needed = 0, uses_anonymous_args = 0
  33              		.loc 1 21 1 is_stmt 0 view .LVU1
  34 0000 30B5     		push	{r4, r5, lr}
  35              	.LCFI0:
  36              		.cfi_def_cfa_offset 12
  37              		.cfi_offset 4, -12
ARM GAS  /tmp/ccCEKDCd.s 			page 2


  38              		.cfi_offset 5, -8
  39              		.cfi_offset 14, -4
  40 0002 87B0     		sub	sp, sp, #28
  41              	.LCFI1:
  42              		.cfi_def_cfa_offset 40
  43 0004 1446     		mov	r4, r2
  22:Core/Src/tmc5160.c ****   uint8_t tx[5] = {
  44              		.loc 1 22 3 is_stmt 1 view .LVU2
  45              		.loc 1 22 11 is_stmt 0 view .LVU3
  46 0006 8DF81000 		strb	r0, [sp, #16]
  23:Core/Src/tmc5160.c ****     reg,
  24:Core/Src/tmc5160.c ****     (uint8_t)(data >> 24),
  47              		.loc 1 24 5 view .LVU4
  48 000a 0B0E     		lsrs	r3, r1, #24
  22:Core/Src/tmc5160.c ****   uint8_t tx[5] = {
  49              		.loc 1 22 11 view .LVU5
  50 000c 8DF81130 		strb	r3, [sp, #17]
  25:Core/Src/tmc5160.c ****     (uint8_t)(data >> 16),
  51              		.loc 1 25 5 view .LVU6
  52 0010 C1F30743 		ubfx	r3, r1, #16, #8
  22:Core/Src/tmc5160.c ****   uint8_t tx[5] = {
  53              		.loc 1 22 11 view .LVU7
  54 0014 8DF81230 		strb	r3, [sp, #18]
  26:Core/Src/tmc5160.c ****     (uint8_t)(data >> 8),
  55              		.loc 1 26 5 view .LVU8
  56 0018 C1F30723 		ubfx	r3, r1, #8, #8
  22:Core/Src/tmc5160.c ****     reg,
  57              		.loc 1 22 11 view .LVU9
  58 001c 8DF81330 		strb	r3, [sp, #19]
  59 0020 8DF81410 		strb	r1, [sp, #20]
  27:Core/Src/tmc5160.c ****     (uint8_t)(data),
  28:Core/Src/tmc5160.c ****   };
  29:Core/Src/tmc5160.c ****   uint8_t rx[5] = {0};
  60              		.loc 1 29 3 is_stmt 1 view .LVU10
  61              		.loc 1 29 11 is_stmt 0 view .LVU11
  62 0024 0022     		movs	r2, #0
  63              	.LVL1:
  64              		.loc 1 29 11 view .LVU12
  65 0026 0292     		str	r2, [sp, #8]
  66 0028 8DF80C20 		strb	r2, [sp, #12]
  30:Core/Src/tmc5160.c **** 
  31:Core/Src/tmc5160.c ****   HAL_GPIO_WritePin(TMC_CSN_GPIO_Port, TMC_CSN_Pin, GPIO_PIN_RESET);
  67              		.loc 1 31 3 is_stmt 1 view .LVU13
  68 002c 134D     		ldr	r5, .L4
  69 002e 8021     		movs	r1, #128
  70              	.LVL2:
  71              		.loc 1 31 3 is_stmt 0 view .LVU14
  72 0030 2846     		mov	r0, r5
  73              	.LVL3:
  74              		.loc 1 31 3 view .LVU15
  75 0032 FFF7FEFF 		bl	HAL_GPIO_WritePin
  76              	.LVL4:
  32:Core/Src/tmc5160.c ****   HAL_SPI_TransmitReceive(&hspi1, tx, rx, sizeof(tx), HAL_MAX_DELAY);
  77              		.loc 1 32 3 is_stmt 1 view .LVU16
  78 0036 4FF0FF33 		mov	r3, #-1
  79 003a 0093     		str	r3, [sp]
  80 003c 0523     		movs	r3, #5
ARM GAS  /tmp/ccCEKDCd.s 			page 3


  81 003e 02AA     		add	r2, sp, #8
  82 0040 04A9     		add	r1, sp, #16
  83 0042 0F48     		ldr	r0, .L4+4
  84 0044 FFF7FEFF 		bl	HAL_SPI_TransmitReceive
  85              	.LVL5:
  33:Core/Src/tmc5160.c ****   HAL_GPIO_WritePin(TMC_CSN_GPIO_Port, TMC_CSN_Pin, GPIO_PIN_SET);
  86              		.loc 1 33 3 view .LVU17
  87 0048 0122     		movs	r2, #1
  88 004a 8021     		movs	r1, #128
  89 004c 2846     		mov	r0, r5
  90 004e FFF7FEFF 		bl	HAL_GPIO_WritePin
  91              	.LVL6:
  34:Core/Src/tmc5160.c **** 
  35:Core/Src/tmc5160.c ****   if (reply != NULL)
  92              		.loc 1 35 3 view .LVU18
  93              		.loc 1 35 6 is_stmt 0 view .LVU19
  94 0052 74B1     		cbz	r4, .L2
  36:Core/Src/tmc5160.c ****   {
  37:Core/Src/tmc5160.c ****     *reply = ((uint32_t)rx[1] << 24) | ((uint32_t)rx[2] << 16) |
  95              		.loc 1 37 5 is_stmt 1 view .LVU20
  96              		.loc 1 37 27 is_stmt 0 view .LVU21
  97 0054 9DF80920 		ldrb	r2, [sp, #9]	@ zero_extendqisi2
  98              		.loc 1 37 53 view .LVU22
  99 0058 9DF80A30 		ldrb	r3, [sp, #10]	@ zero_extendqisi2
 100              		.loc 1 37 57 view .LVU23
 101 005c 1B04     		lsls	r3, r3, #16
 102              		.loc 1 37 38 view .LVU24
 103 005e 43EA0263 		orr	r3, r3, r2, lsl #24
  38:Core/Src/tmc5160.c ****              ((uint32_t)rx[3] << 8)  |  (uint32_t)rx[4];
 104              		.loc 1 38 27 view .LVU25
 105 0062 9DF80B20 		ldrb	r2, [sp, #11]	@ zero_extendqisi2
  37:Core/Src/tmc5160.c ****              ((uint32_t)rx[3] << 8)  |  (uint32_t)rx[4];
 106              		.loc 1 37 64 view .LVU26
 107 0066 43EA0223 		orr	r3, r3, r2, lsl #8
 108              		.loc 1 38 53 view .LVU27
 109 006a 9DF80C20 		ldrb	r2, [sp, #12]	@ zero_extendqisi2
 110              		.loc 1 38 38 view .LVU28
 111 006e 1343     		orrs	r3, r3, r2
  37:Core/Src/tmc5160.c ****              ((uint32_t)rx[3] << 8)  |  (uint32_t)rx[4];
 112              		.loc 1 37 12 view .LVU29
 113 0070 2360     		str	r3, [r4]
 114              	.L2:
  39:Core/Src/tmc5160.c ****   }
  40:Core/Src/tmc5160.c ****   return rx[0];
 115              		.loc 1 40 3 is_stmt 1 view .LVU30
  41:Core/Src/tmc5160.c **** }
 116              		.loc 1 41 1 is_stmt 0 view .LVU31
 117 0072 9DF80800 		ldrb	r0, [sp, #8]	@ zero_extendqisi2
 118 0076 07B0     		add	sp, sp, #28
 119              	.LCFI2:
 120              		.cfi_def_cfa_offset 12
 121              		@ sp needed
 122 0078 30BD     		pop	{r4, r5, pc}
 123              	.LVL7:
 124              	.L5:
 125              		.loc 1 41 1 view .LVU32
 126 007a 00BF     		.align	2
ARM GAS  /tmp/ccCEKDCd.s 			page 4


 127              	.L4:
 128 007c 00080048 		.word	1207961600
 129 0080 00000000 		.word	hspi1
 130              		.cfi_endproc
 131              	.LFE132:
 133              		.section	.text.tmc5160_write,"ax",%progbits
 134              		.align	1
 135              		.global	tmc5160_write
 136              		.syntax unified
 137              		.thumb
 138              		.thumb_func
 139              		.fpu fpv4-sp-d16
 141              	tmc5160_write:
 142              	.LVL8:
 143              	.LFB133:
  42:Core/Src/tmc5160.c **** 
  43:Core/Src/tmc5160.c **** uint8_t tmc5160_write(uint8_t reg, uint32_t value)
  44:Core/Src/tmc5160.c **** {
 144              		.loc 1 44 1 is_stmt 1 view -0
 145              		.cfi_startproc
 146              		@ args = 0, pretend = 0, frame = 0
 147              		@ frame_needed = 0, uses_anonymous_args = 0
 148              		.loc 1 44 1 is_stmt 0 view .LVU34
 149 0000 08B5     		push	{r3, lr}
 150              	.LCFI3:
 151              		.cfi_def_cfa_offset 8
 152              		.cfi_offset 3, -8
 153              		.cfi_offset 14, -4
  45:Core/Src/tmc5160.c ****   return tmc5160_xfer(reg | 0x80u, value, NULL);
 154              		.loc 1 45 3 is_stmt 1 view .LVU35
 155              		.loc 1 45 10 is_stmt 0 view .LVU36
 156 0002 0022     		movs	r2, #0
 157 0004 40F08000 		orr	r0, r0, #128
 158              	.LVL9:
 159              		.loc 1 45 10 view .LVU37
 160 0008 FFF7FEFF 		bl	tmc5160_xfer
 161              	.LVL10:
  46:Core/Src/tmc5160.c **** }
 162              		.loc 1 46 1 view .LVU38
 163 000c 08BD     		pop	{r3, pc}
 164              		.cfi_endproc
 165              	.LFE133:
 167              		.section	.text.tmc5160_read,"ax",%progbits
 168              		.align	1
 169              		.global	tmc5160_read
 170              		.syntax unified
 171              		.thumb
 172              		.thumb_func
 173              		.fpu fpv4-sp-d16
 175              	tmc5160_read:
 176              	.LVL11:
 177              	.LFB134:
  47:Core/Src/tmc5160.c **** 
  48:Core/Src/tmc5160.c **** uint32_t tmc5160_read(uint8_t reg)
  49:Core/Src/tmc5160.c **** {
 178              		.loc 1 49 1 is_stmt 1 view -0
 179              		.cfi_startproc
ARM GAS  /tmp/ccCEKDCd.s 			page 5


 180              		@ args = 0, pretend = 0, frame = 8
 181              		@ frame_needed = 0, uses_anonymous_args = 0
 182              		.loc 1 49 1 is_stmt 0 view .LVU40
 183 0000 30B5     		push	{r4, r5, lr}
 184              	.LCFI4:
 185              		.cfi_def_cfa_offset 12
 186              		.cfi_offset 4, -12
 187              		.cfi_offset 5, -8
 188              		.cfi_offset 14, -4
 189 0002 83B0     		sub	sp, sp, #12
 190              	.LCFI5:
 191              		.cfi_def_cfa_offset 24
 192 0004 0546     		mov	r5, r0
  50:Core/Src/tmc5160.c ****   uint32_t value = 0;
 193              		.loc 1 50 3 is_stmt 1 view .LVU41
 194              		.loc 1 50 12 is_stmt 0 view .LVU42
 195 0006 0024     		movs	r4, #0
 196 0008 0194     		str	r4, [sp, #4]
  51:Core/Src/tmc5160.c **** 
  52:Core/Src/tmc5160.c ****   tmc5160_xfer(reg, 0, NULL);       /* select register            */
 197              		.loc 1 52 3 is_stmt 1 view .LVU43
 198 000a 2246     		mov	r2, r4
 199 000c 2146     		mov	r1, r4
 200 000e FFF7FEFF 		bl	tmc5160_xfer
 201              	.LVL12:
  53:Core/Src/tmc5160.c ****   tmc5160_xfer(reg, 0, &value);     /* clock its contents back out */
 202              		.loc 1 53 3 view .LVU44
 203 0012 01AA     		add	r2, sp, #4
 204 0014 2146     		mov	r1, r4
 205 0016 2846     		mov	r0, r5
 206 0018 FFF7FEFF 		bl	tmc5160_xfer
 207              	.LVL13:
  54:Core/Src/tmc5160.c ****   return value;
 208              		.loc 1 54 3 view .LVU45
  55:Core/Src/tmc5160.c **** }
 209              		.loc 1 55 1 is_stmt 0 view .LVU46
 210 001c 0198     		ldr	r0, [sp, #4]
 211 001e 03B0     		add	sp, sp, #12
 212              	.LCFI6:
 213              		.cfi_def_cfa_offset 12
 214              		@ sp needed
 215 0020 30BD     		pop	{r4, r5, pc}
 216              		.cfi_endproc
 217              	.LFE134:
 219              		.section	.text.tmc5160_set_driver_enabled,"ax",%progbits
 220              		.align	1
 221              		.global	tmc5160_set_driver_enabled
 222              		.syntax unified
 223              		.thumb
 224              		.thumb_func
 225              		.fpu fpv4-sp-d16
 227              	tmc5160_set_driver_enabled:
 228              	.LVL14:
 229              	.LFB135:
  56:Core/Src/tmc5160.c **** 
  57:Core/Src/tmc5160.c **** void tmc5160_set_driver_enabled(bool enable)
  58:Core/Src/tmc5160.c **** {
ARM GAS  /tmp/ccCEKDCd.s 			page 6


 230              		.loc 1 58 1 is_stmt 1 view -0
 231              		.cfi_startproc
 232              		@ args = 0, pretend = 0, frame = 0
 233              		@ frame_needed = 0, uses_anonymous_args = 0
 234              		.loc 1 58 1 is_stmt 0 view .LVU48
 235 0000 08B5     		push	{r3, lr}
 236              	.LCFI7:
 237              		.cfi_def_cfa_offset 8
 238              		.cfi_offset 3, -8
 239              		.cfi_offset 14, -4
  59:Core/Src/tmc5160.c ****   /* DRV_ENN is active low */
  60:Core/Src/tmc5160.c ****   HAL_GPIO_WritePin(TMC_DRV_ENN_GPIO_Port, TMC_DRV_ENN_Pin,
 240              		.loc 1 60 3 is_stmt 1 view .LVU49
 241 0002 80F00102 		eor	r2, r0, #1
 242 0006 4021     		movs	r1, #64
 243 0008 0148     		ldr	r0, .L12
 244              	.LVL15:
 245              		.loc 1 60 3 is_stmt 0 view .LVU50
 246 000a FFF7FEFF 		bl	HAL_GPIO_WritePin
 247              	.LVL16:
  61:Core/Src/tmc5160.c ****                     enable ? GPIO_PIN_RESET : GPIO_PIN_SET);
  62:Core/Src/tmc5160.c **** }
 248              		.loc 1 62 1 view .LVU51
 249 000e 08BD     		pop	{r3, pc}
 250              	.L13:
 251              		.align	2
 252              	.L12:
 253 0010 00040048 		.word	1207960576
 254              		.cfi_endproc
 255              	.LFE135:
 257              		.section	.text.tmc5160_init,"ax",%progbits
 258              		.align	1
 259              		.global	tmc5160_init
 260              		.syntax unified
 261              		.thumb
 262              		.thumb_func
 263              		.fpu fpv4-sp-d16
 265              	tmc5160_init:
 266              	.LFB136:
  63:Core/Src/tmc5160.c **** 
  64:Core/Src/tmc5160.c **** bool tmc5160_init(void)
  65:Core/Src/tmc5160.c **** {
 267              		.loc 1 65 1 is_stmt 1 view -0
 268              		.cfi_startproc
 269              		@ args = 0, pretend = 0, frame = 0
 270              		@ frame_needed = 0, uses_anonymous_args = 0
 271 0000 08B5     		push	{r3, lr}
 272              	.LCFI8:
 273              		.cfi_def_cfa_offset 8
 274              		.cfi_offset 3, -8
 275              		.cfi_offset 14, -4
  66:Core/Src/tmc5160.c ****   /* IOIN bits 31:24 hold the chip version: 0x30 for the TMC5160.
  67:Core/Src/tmc5160.c ****    * 0x00 or 0xFF means MISO is dead (wiring, power, or CSN problem). */
  68:Core/Src/tmc5160.c ****   uint32_t ioin = tmc5160_read(TMC5160_REG_IOIN);
 276              		.loc 1 68 3 view .LVU53
 277              		.loc 1 68 19 is_stmt 0 view .LVU54
 278 0002 0420     		movs	r0, #4
ARM GAS  /tmp/ccCEKDCd.s 			page 7


 279 0004 FFF7FEFF 		bl	tmc5160_read
 280              	.LVL17:
  69:Core/Src/tmc5160.c ****   if (((ioin >> 24) & 0xFFu) != 0x30u)
 281              		.loc 1 69 3 is_stmt 1 view .LVU55
 282              		.loc 1 69 14 is_stmt 0 view .LVU56
 283 0008 000E     		lsrs	r0, r0, #24
 284              	.LVL18:
 285              		.loc 1 69 6 view .LVU57
 286 000a 3028     		cmp	r0, #48
 287 000c 01D0     		beq	.L18
  70:Core/Src/tmc5160.c ****   {
  71:Core/Src/tmc5160.c ****     return false;
 288              		.loc 1 71 12 view .LVU58
 289 000e 0020     		movs	r0, #0
 290              	.L15:
  72:Core/Src/tmc5160.c ****   }
  73:Core/Src/tmc5160.c **** 
  74:Core/Src/tmc5160.c ****   /* Clear reset/error flags (GSTAT bits are cleared by writing 1) */
  75:Core/Src/tmc5160.c ****   tmc5160_write(TMC5160_REG_GSTAT, 0x07u);
  76:Core/Src/tmc5160.c **** 
  77:Core/Src/tmc5160.c ****   /* GCONF = 0: SpreadCycle, no StealthChop - simplest reliable starting
  78:Core/Src/tmc5160.c ****    * point for a bring-up demo. */
  79:Core/Src/tmc5160.c ****   tmc5160_write(TMC5160_REG_GCONF, 0x00000000u);
  80:Core/Src/tmc5160.c **** 
  81:Core/Src/tmc5160.c ****   /* CHOPCONF: TOFF=3, HSTRT=4, HEND=1, TBL=2 - the datasheet's baseline
  82:Core/Src/tmc5160.c ****    * SpreadCycle configuration. TOFF != 0 is what actually enables the
  83:Core/Src/tmc5160.c ****    * chopper; with TOFF=0 the motor stays unpowered. */
  84:Core/Src/tmc5160.c ****   tmc5160_write(TMC5160_REG_CHOPCONF, 0x000100C3u);
  85:Core/Src/tmc5160.c **** 
  86:Core/Src/tmc5160.c ****   /* Motor current. GLOBALSCALER scales the full-scale current set by the
  87:Core/Src/tmc5160.c ****    * sense resistors (0 = 256/256 = full scale). 128 = half scale is a
  88:Core/Src/tmc5160.c ****    * gentle default for bring-up -- ADJUST for your R_sense and motor:
  89:Core/Src/tmc5160.c ****    *   I_rms = GLOBALSCALER/256 * (IRUN+1)/32 * V_fs/R_sense * 1/sqrt(2)
  90:Core/Src/tmc5160.c ****    * with V_fs = 0.325 V. */
  91:Core/Src/tmc5160.c ****   tmc5160_write(TMC5160_REG_GLOBALSCALER, 128u);
  92:Core/Src/tmc5160.c **** 
  93:Core/Src/tmc5160.c ****   /* IHOLD_IRUN: IRUN=16/31 run current, IHOLD=8/31 standstill current,
  94:Core/Src/tmc5160.c ****    * IHOLDDELAY=6 (smooth ramp-down to hold current). */
  95:Core/Src/tmc5160.c ****   tmc5160_write(TMC5160_REG_IHOLD_IRUN, (6u << 16) | (16u << 8) | 8u);
  96:Core/Src/tmc5160.c **** 
  97:Core/Src/tmc5160.c ****   /* TPOWERDOWN=10: ~0.2 s from standstill to hold-current reduction */
  98:Core/Src/tmc5160.c ****   tmc5160_write(TMC5160_REG_TPOWERDOWN, 10u);
  99:Core/Src/tmc5160.c **** 
 100:Core/Src/tmc5160.c ****   /* Ramp generator: a modest trapezoid/S-ramp for a first spin.
 101:Core/Src/tmc5160.c ****    * Velocity unit is usteps/t, t = 2^24 / f_clk (~1.4 s at 12 MHz internal
 102:Core/Src/tmc5160.c ****    * clock), so VMAX=200000 is roughly 2.8 rev/s at 256 usteps. */
 103:Core/Src/tmc5160.c ****   tmc5160_write(TMC5160_REG_VSTART, 0u);
 104:Core/Src/tmc5160.c ****   tmc5160_write(TMC5160_REG_A1,     1000u);
 105:Core/Src/tmc5160.c ****   tmc5160_write(TMC5160_REG_V1,     50000u);
 106:Core/Src/tmc5160.c ****   tmc5160_write(TMC5160_REG_AMAX,   5000u);
 107:Core/Src/tmc5160.c ****   tmc5160_write(TMC5160_REG_VMAX,   200000u);
 108:Core/Src/tmc5160.c ****   tmc5160_write(TMC5160_REG_DMAX,   7000u);
 109:Core/Src/tmc5160.c ****   tmc5160_write(TMC5160_REG_D1,     1400u);
 110:Core/Src/tmc5160.c ****   tmc5160_write(TMC5160_REG_VSTOP,  10u);
 111:Core/Src/tmc5160.c **** 
 112:Core/Src/tmc5160.c ****   /* Positioning mode; make "here" position 0 */
 113:Core/Src/tmc5160.c ****   tmc5160_write(TMC5160_REG_RAMPMODE, TMC5160_RAMPMODE_POSITION);
ARM GAS  /tmp/ccCEKDCd.s 			page 8


 114:Core/Src/tmc5160.c ****   tmc5160_write(TMC5160_REG_XACTUAL,  0u);
 115:Core/Src/tmc5160.c ****   tmc5160_write(TMC5160_REG_XTARGET,  0u);
 116:Core/Src/tmc5160.c **** 
 117:Core/Src/tmc5160.c ****   return true;
 118:Core/Src/tmc5160.c **** }
 291              		.loc 1 118 1 view .LVU59
 292 0010 08BD     		pop	{r3, pc}
 293              	.L18:
  75:Core/Src/tmc5160.c **** 
 294              		.loc 1 75 3 is_stmt 1 view .LVU60
 295 0012 0721     		movs	r1, #7
 296 0014 0120     		movs	r0, #1
 297 0016 FFF7FEFF 		bl	tmc5160_write
 298              	.LVL19:
  79:Core/Src/tmc5160.c **** 
 299              		.loc 1 79 3 view .LVU61
 300 001a 0021     		movs	r1, #0
 301 001c 0846     		mov	r0, r1
 302 001e FFF7FEFF 		bl	tmc5160_write
 303              	.LVL20:
  84:Core/Src/tmc5160.c **** 
 304              		.loc 1 84 3 view .LVU62
 305 0022 2149     		ldr	r1, .L19
 306 0024 6C20     		movs	r0, #108
 307 0026 FFF7FEFF 		bl	tmc5160_write
 308              	.LVL21:
  91:Core/Src/tmc5160.c **** 
 309              		.loc 1 91 3 view .LVU63
 310 002a 8021     		movs	r1, #128
 311 002c 0B20     		movs	r0, #11
 312 002e FFF7FEFF 		bl	tmc5160_write
 313              	.LVL22:
  95:Core/Src/tmc5160.c **** 
 314              		.loc 1 95 3 view .LVU64
 315 0032 1E49     		ldr	r1, .L19+4
 316 0034 1020     		movs	r0, #16
 317 0036 FFF7FEFF 		bl	tmc5160_write
 318              	.LVL23:
  98:Core/Src/tmc5160.c **** 
 319              		.loc 1 98 3 view .LVU65
 320 003a 0A21     		movs	r1, #10
 321 003c 1120     		movs	r0, #17
 322 003e FFF7FEFF 		bl	tmc5160_write
 323              	.LVL24:
 103:Core/Src/tmc5160.c ****   tmc5160_write(TMC5160_REG_A1,     1000u);
 324              		.loc 1 103 3 view .LVU66
 325 0042 0021     		movs	r1, #0
 326 0044 2320     		movs	r0, #35
 327 0046 FFF7FEFF 		bl	tmc5160_write
 328              	.LVL25:
 104:Core/Src/tmc5160.c ****   tmc5160_write(TMC5160_REG_V1,     50000u);
 329              		.loc 1 104 3 view .LVU67
 330 004a 4FF47A71 		mov	r1, #1000
 331 004e 2420     		movs	r0, #36
 332 0050 FFF7FEFF 		bl	tmc5160_write
 333              	.LVL26:
 105:Core/Src/tmc5160.c ****   tmc5160_write(TMC5160_REG_AMAX,   5000u);
ARM GAS  /tmp/ccCEKDCd.s 			page 9


 334              		.loc 1 105 3 view .LVU68
 335 0054 4CF25031 		movw	r1, #50000
 336 0058 2520     		movs	r0, #37
 337 005a FFF7FEFF 		bl	tmc5160_write
 338              	.LVL27:
 106:Core/Src/tmc5160.c ****   tmc5160_write(TMC5160_REG_VMAX,   200000u);
 339              		.loc 1 106 3 view .LVU69
 340 005e 41F28831 		movw	r1, #5000
 341 0062 2620     		movs	r0, #38
 342 0064 FFF7FEFF 		bl	tmc5160_write
 343              	.LVL28:
 107:Core/Src/tmc5160.c ****   tmc5160_write(TMC5160_REG_DMAX,   7000u);
 344              		.loc 1 107 3 view .LVU70
 345 0068 1149     		ldr	r1, .L19+8
 346 006a 2720     		movs	r0, #39
 347 006c FFF7FEFF 		bl	tmc5160_write
 348              	.LVL29:
 108:Core/Src/tmc5160.c ****   tmc5160_write(TMC5160_REG_D1,     1400u);
 349              		.loc 1 108 3 view .LVU71
 350 0070 41F65831 		movw	r1, #7000
 351 0074 2820     		movs	r0, #40
 352 0076 FFF7FEFF 		bl	tmc5160_write
 353              	.LVL30:
 109:Core/Src/tmc5160.c ****   tmc5160_write(TMC5160_REG_VSTOP,  10u);
 354              		.loc 1 109 3 view .LVU72
 355 007a 4FF4AF61 		mov	r1, #1400
 356 007e 2A20     		movs	r0, #42
 357 0080 FFF7FEFF 		bl	tmc5160_write
 358              	.LVL31:
 110:Core/Src/tmc5160.c **** 
 359              		.loc 1 110 3 view .LVU73
 360 0084 0A21     		movs	r1, #10
 361 0086 2B20     		movs	r0, #43
 362 0088 FFF7FEFF 		bl	tmc5160_write
 363              	.LVL32:
 113:Core/Src/tmc5160.c ****   tmc5160_write(TMC5160_REG_XACTUAL,  0u);
 364              		.loc 1 113 3 view .LVU74
 365 008c 0021     		movs	r1, #0
 366 008e 2020     		movs	r0, #32
 367 0090 FFF7FEFF 		bl	tmc5160_write
 368              	.LVL33:
 114:Core/Src/tmc5160.c ****   tmc5160_write(TMC5160_REG_XTARGET,  0u);
 369              		.loc 1 114 3 view .LVU75
 370 0094 0021     		movs	r1, #0
 371 0096 2120     		movs	r0, #33
 372 0098 FFF7FEFF 		bl	tmc5160_write
 373              	.LVL34:
 115:Core/Src/tmc5160.c **** 
 374              		.loc 1 115 3 view .LVU76
 375 009c 0021     		movs	r1, #0
 376 009e 2D20     		movs	r0, #45
 377 00a0 FFF7FEFF 		bl	tmc5160_write
 378              	.LVL35:
 117:Core/Src/tmc5160.c **** }
 379              		.loc 1 117 3 view .LVU77
 117:Core/Src/tmc5160.c **** }
 380              		.loc 1 117 10 is_stmt 0 view .LVU78
ARM GAS  /tmp/ccCEKDCd.s 			page 10


 381 00a4 0120     		movs	r0, #1
 382 00a6 B3E7     		b	.L15
 383              	.L20:
 384              		.align	2
 385              	.L19:
 386 00a8 C3000100 		.word	65731
 387 00ac 08100600 		.word	397320
 388 00b0 400D0300 		.word	200000
 389              		.cfi_endproc
 390              	.LFE136:
 392              		.section	.text.tmc5160_move_to,"ax",%progbits
 393              		.align	1
 394              		.global	tmc5160_move_to
 395              		.syntax unified
 396              		.thumb
 397              		.thumb_func
 398              		.fpu fpv4-sp-d16
 400              	tmc5160_move_to:
 401              	.LVL36:
 402              	.LFB137:
 119:Core/Src/tmc5160.c **** 
 120:Core/Src/tmc5160.c **** void tmc5160_move_to(int32_t xtarget)
 121:Core/Src/tmc5160.c **** {
 403              		.loc 1 121 1 is_stmt 1 view -0
 404              		.cfi_startproc
 405              		@ args = 0, pretend = 0, frame = 0
 406              		@ frame_needed = 0, uses_anonymous_args = 0
 407              		.loc 1 121 1 is_stmt 0 view .LVU80
 408 0000 10B5     		push	{r4, lr}
 409              	.LCFI9:
 410              		.cfi_def_cfa_offset 8
 411              		.cfi_offset 4, -8
 412              		.cfi_offset 14, -4
 413 0002 0446     		mov	r4, r0
 122:Core/Src/tmc5160.c ****   tmc5160_write(TMC5160_REG_RAMPMODE, TMC5160_RAMPMODE_POSITION);
 414              		.loc 1 122 3 is_stmt 1 view .LVU81
 415 0004 0021     		movs	r1, #0
 416 0006 2020     		movs	r0, #32
 417              	.LVL37:
 418              		.loc 1 122 3 is_stmt 0 view .LVU82
 419 0008 FFF7FEFF 		bl	tmc5160_write
 420              	.LVL38:
 123:Core/Src/tmc5160.c ****   tmc5160_write(TMC5160_REG_XTARGET, (uint32_t)xtarget);
 421              		.loc 1 123 3 is_stmt 1 view .LVU83
 422 000c 2146     		mov	r1, r4
 423 000e 2D20     		movs	r0, #45
 424 0010 FFF7FEFF 		bl	tmc5160_write
 425              	.LVL39:
 124:Core/Src/tmc5160.c **** }
 426              		.loc 1 124 1 is_stmt 0 view .LVU84
 427 0014 10BD     		pop	{r4, pc}
 428              		.loc 1 124 1 view .LVU85
 429              		.cfi_endproc
 430              	.LFE137:
 432              		.section	.text.tmc5160_position_reached,"ax",%progbits
 433              		.align	1
 434              		.global	tmc5160_position_reached
ARM GAS  /tmp/ccCEKDCd.s 			page 11


 435              		.syntax unified
 436              		.thumb
 437              		.thumb_func
 438              		.fpu fpv4-sp-d16
 440              	tmc5160_position_reached:
 441              	.LFB138:
 125:Core/Src/tmc5160.c **** 
 126:Core/Src/tmc5160.c **** bool tmc5160_position_reached(void)
 127:Core/Src/tmc5160.c **** {
 442              		.loc 1 127 1 is_stmt 1 view -0
 443              		.cfi_startproc
 444              		@ args = 0, pretend = 0, frame = 0
 445              		@ frame_needed = 0, uses_anonymous_args = 0
 446 0000 08B5     		push	{r3, lr}
 447              	.LCFI10:
 448              		.cfi_def_cfa_offset 8
 449              		.cfi_offset 3, -8
 450              		.cfi_offset 14, -4
 128:Core/Src/tmc5160.c ****   return (tmc5160_read(TMC5160_REG_RAMP_STAT) &
 451              		.loc 1 128 3 view .LVU87
 452              		.loc 1 128 11 is_stmt 0 view .LVU88
 453 0002 3520     		movs	r0, #53
 454 0004 FFF7FEFF 		bl	tmc5160_read
 455              	.LVL40:
 129:Core/Src/tmc5160.c ****           TMC5160_RAMP_STAT_POSITION_REACHED) != 0u;
 130:Core/Src/tmc5160.c **** }
 456              		.loc 1 130 1 view .LVU89
 457 0008 C0F34020 		ubfx	r0, r0, #9, #1
 458 000c 08BD     		pop	{r3, pc}
 459              		.cfi_endproc
 460              	.LFE138:
 462              		.text
 463              	.Letext0:
 464              		.file 2 "/usr/lib/gcc/arm-none-eabi/10.3.1/include/stdint.h"
 465              		.file 3 "Drivers/CMSIS/Device/ST/STM32G4xx/Include/stm32g474xx.h"
 466              		.file 4 "Drivers/STM32G4xx_HAL_Driver/Inc/stm32g4xx_hal_def.h"
 467              		.file 5 "Drivers/STM32G4xx_HAL_Driver/Inc/stm32g4xx_hal_gpio.h"
 468              		.file 6 "Drivers/STM32G4xx_HAL_Driver/Inc/stm32g4xx_hal_dma.h"
 469              		.file 7 "Drivers/STM32G4xx_HAL_Driver/Inc/stm32g4xx_hal_spi.h"
ARM GAS  /tmp/ccCEKDCd.s 			page 12


DEFINED SYMBOLS
                            *ABS*:0000000000000000 tmc5160.c
     /tmp/ccCEKDCd.s:18     .text.tmc5160_xfer:0000000000000000 $t
     /tmp/ccCEKDCd.s:25     .text.tmc5160_xfer:0000000000000000 tmc5160_xfer
     /tmp/ccCEKDCd.s:128    .text.tmc5160_xfer:000000000000007c $d
     /tmp/ccCEKDCd.s:134    .text.tmc5160_write:0000000000000000 $t
     /tmp/ccCEKDCd.s:141    .text.tmc5160_write:0000000000000000 tmc5160_write
     /tmp/ccCEKDCd.s:168    .text.tmc5160_read:0000000000000000 $t
     /tmp/ccCEKDCd.s:175    .text.tmc5160_read:0000000000000000 tmc5160_read
     /tmp/ccCEKDCd.s:220    .text.tmc5160_set_driver_enabled:0000000000000000 $t
     /tmp/ccCEKDCd.s:227    .text.tmc5160_set_driver_enabled:0000000000000000 tmc5160_set_driver_enabled
     /tmp/ccCEKDCd.s:253    .text.tmc5160_set_driver_enabled:0000000000000010 $d
     /tmp/ccCEKDCd.s:258    .text.tmc5160_init:0000000000000000 $t
     /tmp/ccCEKDCd.s:265    .text.tmc5160_init:0000000000000000 tmc5160_init
     /tmp/ccCEKDCd.s:386    .text.tmc5160_init:00000000000000a8 $d
     /tmp/ccCEKDCd.s:393    .text.tmc5160_move_to:0000000000000000 $t
     /tmp/ccCEKDCd.s:400    .text.tmc5160_move_to:0000000000000000 tmc5160_move_to
     /tmp/ccCEKDCd.s:433    .text.tmc5160_position_reached:0000000000000000 $t
     /tmp/ccCEKDCd.s:440    .text.tmc5160_position_reached:0000000000000000 tmc5160_position_reached

UNDEFINED SYMBOLS
HAL_GPIO_WritePin
HAL_SPI_TransmitReceive
hspi1
